; Function Attrs: mustprogress uwtable
define noundef zeroext i1 @_ZNK6google8protobuf8compiler13CodeGenerator11GenerateAllERKSt6vectorIPKNS0_14FileDescriptorESaIS6_EERKNSt7__cxx1112basic_stringIcSt11char_traitsIcESaIcEEEPNS1_16GeneratorContextEPSG_(ptr noundef nonnull align 8 dereferenceable(8) %this, ptr noundef nonnull readonly align 8 captures(none) dereferenceable(24) %files, ptr noundef nonnull align 8 dereferenceable(32) %parameter, ptr noundef %generator_context, ptr noundef %error) unnamed_addr #6 align 2 personality ptr @__gxx_personality_v0 {
entry:
  %ref.tmp = alloca %"class.std::__cxx11::basic_string", align 8
  %ref.tmp13 = alloca %"class.absl::lts_20230802::AlphaNum", align 8
  %ref.tmp15 = alloca %"class.absl::lts_20230802::AlphaNum", align 8
  %ref.tmp16 = alloca %"class.absl::lts_20230802::AlphaNum", align 8
  %_M_finish.i = getelementptr inbounds nuw i8, ptr %files, i64 8
  %0 = load ptr, ptr %_M_finish.i, align 8
  %1 = load ptr, ptr %files, align 8
  %cmp19.not = icmp eq ptr %0, %1
  br i1 %cmp19.not, label %for.end, label %for.body.lr.ph

for.body.lr.ph:                                   ; preds = %entry
  %tobool5 = icmp eq ptr %error, null
  br i1 %tobool5, label %for.body.us, label %for.body

for.body.us:                                      ; preds = %for.body.lr.ph, %for.cond.us
  %indvars.iv31 = phi i64 [ %indvars.iv.next32, %for.cond.us ], [ 0, %for.body.lr.ph ]
  %2 = phi ptr [ %6, %for.cond.us ], [ %1, %for.body.lr.ph ]
  %add.ptr.i.us = getelementptr inbounds nuw ptr, ptr %2, i64 %indvars.iv31
  %3 = load ptr, ptr %add.ptr.i.us, align 8
  %vtable.us = load ptr, ptr %this, align 8
  %vfn.us = getelementptr inbounds nuw i8, ptr %vtable.us, i64 16
  %4 = load ptr, ptr %vfn.us, align 8
  %call4.us = tail call noundef zeroext i1 %4(ptr noundef nonnull align 8 dereferenceable(8) %this, ptr noundef %3, ptr noundef nonnull align 8 dereferenceable(32) %parameter, ptr noundef %generator_context, ptr noundef null)
  br i1 %call4.us, label %for.cond.us, label %for.end

for.cond.us:                                      ; preds = %for.body.us
  %indvars.iv.next32 = add nuw nsw i64 %indvars.iv31, 1
  %5 = load ptr, ptr %_M_finish.i, align 8
  %6 = load ptr, ptr %files, align 8
  %sub.ptr.lhs.cast.i.us = ptrtoint ptr %5 to i64
  %sub.ptr.rhs.cast.i.us = ptrtoint ptr %6 to i64
  %sub.ptr.sub.i.us = sub i64 %sub.ptr.lhs.cast.i.us, %sub.ptr.rhs.cast.i.us
  %sub.ptr.div.i.us = ashr exact i64 %sub.ptr.sub.i.us, 3
  %cmp.us = icmp ugt i64 %sub.ptr.div.i.us, %indvars.iv.next32
  br i1 %cmp.us, label %for.body.us, label %for.end, !llvm.loop !4

for.cond:                                         ; preds = %land.lhs.true10.thread
  %indvars.iv.next = add nuw nsw i64 %indvars.iv, 1
  %7 = load ptr, ptr %_M_finish.i, align 8
  %8 = load ptr, ptr %files, align 8
  %sub.ptr.lhs.cast.i = ptrtoint ptr %7 to i64
  %sub.ptr.rhs.cast.i = ptrtoint ptr %8 to i64
  %sub.ptr.sub.i = sub i64 %sub.ptr.lhs.cast.i, %sub.ptr.rhs.cast.i
  %sub.ptr.div.i = ashr exact i64 %sub.ptr.sub.i, 3
  %cmp = icmp ugt i64 %sub.ptr.div.i, %indvars.iv.next
  br i1 %cmp, label %for.body, label %for.end, !llvm.loop !4

for.body:                                         ; preds = %for.body.lr.ph, %for.cond
  %indvars.iv = phi i64 [ %indvars.iv.next, %for.cond ], [ 0, %for.body.lr.ph ]
  %9 = phi ptr [ %8, %for.cond ], [ %1, %for.body.lr.ph ]
  %add.ptr.i = getelementptr inbounds nuw ptr, ptr %9, i64 %indvars.iv
  %10 = load ptr, ptr %add.ptr.i, align 8
  %vtable = load ptr, ptr %this, align 8
  %vfn = getelementptr inbounds nuw i8, ptr %vtable, i64 16
  %11 = load ptr, ptr %vfn, align 8
  %call4 = tail call noundef zeroext i1 %11(ptr noundef nonnull align 8 dereferenceable(8) %this, ptr noundef %10, ptr noundef nonnull align 8 dereferenceable(32) %parameter, ptr noundef %generator_context, ptr noundef nonnull %error)
  %call1134 = tail call noundef zeroext i1 @_ZNKSt7__cxx1112basic_stringIcSt11char_traitsIcESaIcEE5emptyEv(ptr noundef nonnull align 8 dereferenceable(32) %error) #27
  br i1 %call4, label %land.lhs.true10.thread, label %land.lhs.true6

land.lhs.true6:                                   ; preds = %for.body
  br i1 %call1134, label %if.then, label %land.lhs.true10

if.then:                                          ; preds = %land.lhs.true6
  %call8 = tail call noundef nonnull align 8 dereferenceable(32) ptr @_ZNSt7__cxx1112basic_stringIcSt11char_traitsIcESaIcEEaSEPKc(ptr noundef nonnull align 8 dereferenceable(32) %error, ptr noundef nonnull @.str)
  br label %land.lhs.true10

land.lhs.true10:                                  ; preds = %land.lhs.true6, %if.then
  %call11 = tail call noundef zeroext i1 @_ZNKSt7__cxx1112basic_stringIcSt11char_traitsIcESaIcEE5emptyEv(ptr noundef nonnull align 8 dereferenceable(32) %error) #27
  br i1 %call11, label %for.end, label %if.then12

land.lhs.true10.thread:                           ; preds = %for.body
  br i1 %call1134, label %for.cond, label %if.then12

if.then12:                                        ; preds = %land.lhs.true10.thread, %land.lhs.true10
  %name_.i = getelementptr inbounds nuw i8, ptr %10, i64 8
  %12 = load ptr, ptr %name_.i, align 8
  %call.i = tail call { i64, ptr } @_ZNKSt7__cxx1112basic_stringIcSt11char_traitsIcESaIcEEcvSt17basic_string_viewIcS2_EEv(ptr noundef nonnull align 8 dereferenceable(32) %12) #27
  %13 = extractvalue { i64, ptr } %call.i, 0
  store i64 %13, ptr %ref.tmp13, align 8
  %14 = getelementptr inbounds nuw i8, ptr %ref.tmp13, i64 8
  %15 = extractvalue { i64, ptr } %call.i, 1
  store ptr %15, ptr %14, align 8
  store i64 2, ptr %ref.tmp15, align 8
  %16 = getelementptr inbounds nuw i8, ptr %ref.tmp15, i64 8
  store ptr @.str.1, ptr %16, align 8
  %call.i14 = tail call { i64, ptr } @_ZNKSt7__cxx1112basic_stringIcSt11char_traitsIcESaIcEEcvSt17basic_string_viewIcS2_EEv(ptr noundef nonnull align 8 dereferenceable(32) %error) #27
  %17 = extractvalue { i64, ptr } %call.i14, 0
  store i64 %17, ptr %ref.tmp16, align 8
  %18 = getelementptr inbounds nuw i8, ptr %ref.tmp16, i64 8
  %19 = extractvalue { i64, ptr } %call.i14, 1
  store ptr %19, ptr %18, align 8
  call void @_ZN4absl12lts_202308026StrCatB5cxx11ERKNS0_8AlphaNumES3_S3_(ptr nonnull sret(%"class.std::__cxx11::basic_string") align 8 %ref.tmp, ptr noundef nonnull align 8 dereferenceable(48) %ref.tmp13, ptr noundef nonnull align 8 dereferenceable(48) %ref.tmp15, ptr noundef nonnull align 8 dereferenceable(48) %ref.tmp16)
  %call17 = call noundef nonnull align 8 dereferenceable(32) ptr @_ZNSt7__cxx1112basic_stringIcSt11char_traitsIcESaIcEEaSEOS4_(ptr noundef nonnull align 8 dereferenceable(32) %error, ptr noundef nonnull align 8 dereferenceable(32) %ref.tmp) #27
  call void @_ZNSt7__cxx1112basic_stringIcSt11char_traitsIcESaIcEED1Ev(ptr noundef nonnull align 8 dereferenceable(32) %ref.tmp) #27
  br label %for.end

for.end:                                          ; preds = %for.cond, %for.cond.us, %for.body.us, %land.lhs.true10, %entry, %if.then12
  %succeeded.1 = phi i1 [ %call4, %if.then12 ], [ true, %entry ], [ false, %land.lhs.true10 ], [ %call4.us, %for.body.us ], [ %call4.us, %for.cond.us ], [ true, %for.cond ]
  ret i1 %succeeded.1
}